; ModuleID = 'source-C-CXX/52/808.c'
source_filename = "source-C-CXX/52/808.c"
target datalayout = "e-m:e-p270:32:32-p271:32:32-p272:64:64-i64:64-f80:128-n8:16:32:64-S128"
target triple = "x86_64-pc-linux-gnu"

@.str = private unnamed_addr constant [3 x i8] c"%d\00", align 1
@.str.1 = private unnamed_addr constant [4 x i8] c",%d\00", align 1

; Function Attrs: nofree nounwind sspstrong uwtable
define dso_local i32 @main() local_unnamed_addr #0 {
  %1 = alloca i32, align 4
  %2 = alloca [10000 x i32], align 16
  %3 = bitcast i32* %1 to i8*
  call void @llvm.lifetime.start.p0i8(i64 4, i8* nonnull %3) #3
  %4 = call i32 (i8*, ...) @__isoc99_scanf(i8* getelementptr inbounds ([3 x i8], [3 x i8]* @.str, i64 0, i64 0), i32* nonnull %1)
  %5 = bitcast [10000 x i32]* %2 to i8*
  call void @llvm.lifetime.start.p0i8(i64 40000, i8* nonnull %5) #3
  %6 = load i32, i32* %1, align 4, !tbaa !5
  %7 = icmp sgt i32 %6, 0
  br i1 %7, label %16, label %11

8:                                                ; preds = %16
  %9 = getelementptr inbounds [10000 x i32], [10000 x i32]* %2, i64 0, i64 0
  %10 = load i32, i32* %9, align 16, !tbaa !5
  br label %11

11:                                               ; preds = %8, %0
  %12 = phi i32 [ %10, %8 ], [ undef, %0 ]
  %13 = call i32 (i8*, ...) @printf(i8* nonnull dereferenceable(1) getelementptr inbounds ([3 x i8], [3 x i8]* @.str, i64 0, i64 0), i32 %12)
  %14 = load i32, i32* %1, align 4, !tbaa !5
  %15 = icmp sgt i32 %14, 1
  br i1 %15, label %24, label %29

16:                                               ; preds = %0, %16
  %17 = phi i64 [ %20, %16 ], [ 0, %0 ]
  %18 = getelementptr inbounds [10000 x i32], [10000 x i32]* %2, i64 0, i64 %17
  %19 = call i32 (i8*, ...) @__isoc99_scanf(i8* getelementptr inbounds ([3 x i8], [3 x i8]* @.str, i64 0, i64 0), i32* nonnull %18)
  %20 = add nuw nsw i64 %17, 1
  %21 = load i32, i32* %1, align 4, !tbaa !5
  %22 = sext i32 %21 to i64
  %23 = icmp slt i64 %20, %22
  br i1 %23, label %16, label %8, !llvm.loop !9

24:                                               ; preds = %11, %41
  %25 = phi i32 [ %42, %41 ], [ %14, %11 ]
  %26 = phi i64 [ %43, %41 ], [ 1, %11 ]
  %27 = getelementptr inbounds [10000 x i32], [10000 x i32]* %2, i64 0, i64 %26
  %28 = load i32, i32* %27, align 4, !tbaa !5
  br label %32

29:                                               ; preds = %41, %11
  call void @llvm.lifetime.end.p0i8(i64 40000, i8* nonnull %5) #3
  call void @llvm.lifetime.end.p0i8(i64 4, i8* nonnull %3) #3
  ret i32 0

30:                                               ; preds = %32
  %31 = icmp eq i64 %37, %26
  br i1 %31, label %38, label %32, !llvm.loop !11

32:                                               ; preds = %24, %30
  %33 = phi i64 [ 0, %24 ], [ %37, %30 ]
  %34 = getelementptr inbounds [10000 x i32], [10000 x i32]* %2, i64 0, i64 %33
  %35 = load i32, i32* %34, align 4, !tbaa !5
  %36 = icmp eq i32 %28, %35
  %37 = add nuw nsw i64 %33, 1
  br i1 %36, label %41, label %30

38:                                               ; preds = %30
  %39 = call i32 (i8*, ...) @printf(i8* nonnull dereferenceable(1) getelementptr inbounds ([4 x i8], [4 x i8]* @.str.1, i64 0, i64 0), i32 %28)
  %40 = load i32, i32* %1, align 4, !tbaa !5
  br label %41

41:                                               ; preds = %32, %38
  %42 = phi i32 [ %40, %38 ], [ %25, %32 ]
  %43 = add nuw nsw i64 %26, 1
  %44 = sext i32 %42 to i64
  %45 = icmp slt i64 %43, %44
  br i1 %45, label %24, label %29, !llvm.loop !12
}

; Function Attrs: argmemonly mustprogress nofree nosync nounwind willreturn
declare void @llvm.lifetime.start.p0i8(i64 immarg, i8* nocapture) #1

; Function Attrs: nofree nounwind
declare noundef i32 @__isoc99_scanf(i8* nocapture noundef readonly, ...) local_unnamed_addr #2

; Function Attrs: argmemonly mustprogress nofree nosync nounwind willreturn
declare void @llvm.lifetime.end.p0i8(i64 immarg, i8* nocapture) #1

; Function Attrs: nofree nounwind
declare noundef i32 @printf(i8* nocapture noundef readonly, ...) local_unnamed_addr #2


!llvm.module.flags = !{!0, !1, !2, !3}
!llvm.ident = !{!4}

!0 = !{i32 1, !"wchar_size", i32 4}
!1 = !{i32 7, !"PIC Level", i32 2}
!2 = !{i32 7, !"PIE Level", i32 2}
!3 = !{i32 7, !"uwtable", i32 1}
!4 = !{!"clang version 13.0.0"}
!5 = !{!6, !6, i64 0}
!6 = !{!"int", !7, i64 0}
!7 = !{!"omnipotent char", !8, i64 0}
!8 = !{!"Simple C/C++ TBAA"}
!9 = distinct !{!9, !10}
!10 = !{!"llvm.loop.mustprogress"}
!11 = distinct !{!11, !10}
!12 = distinct !{!12, !10}
